target datalayout = "e-m:e-p270:32:32-p271:32:32-p272:64:64-i64:64-i128:128-f80:128-n8:16:32:64-S128"
target triple = "x86_64-pc-linux-gnu"

%struct.cli_ctx_tag = type { ptr, ptr, ptr, ptr, ptr, ptr, ptr, i64, ptr, i32, i32, ptr, i32, i32, ptr, [16 x i8], ptr, ptr, ptr, ptr, ptr, ptr, %struct.timeval, i8, i8 }
%struct.timeval = type { i64, i64 }
%struct.cl_fmap = type { ptr, ptr, ptr, i64, i64, i64, i64, i8, i8, i8, i64, i64, i64, i64, ptr, ptr, ptr, ptr, ptr, ptr, ptr, i8, [16 x i8], i8, [20 x i8], i8, [32 x i8], ptr, ptr }
%struct.cl_engine = type { i32, i32, i32, [2 x i32], i32, i32, i32, ptr, i32, i64, i32, i32, i64, i64, i32, i32, i32, i32, ptr, ptr, ptr, ptr, ptr, ptr, ptr, ptr, ptr, ptr, ptr, ptr, ptr, ptr, ptr, ptr, ptr, ptr, ptr, i64, ptr, %struct.crtmgr, ptr, ptr, ptr, ptr, ptr, ptr, ptr, ptr, ptr, ptr, ptr, ptr, ptr, ptr, ptr, ptr, ptr, %struct.cli_all_bc, [7 x ptr], [7 x i32], i32, i32, i32, i32, i64, i64, i64, i64, i64, ptr, ptr, ptr, ptr, ptr, ptr, ptr, ptr, ptr, i32, i32, i32, i64, i64, i64, ptr }
%struct.crtmgr = type { ptr, i32 }
%struct.cli_all_bc = type { ptr, i32, ptr, %struct.cli_environment, i32 }
%struct.cli_environment = type { i32, i32, i32, i32, i32, i32, i32, [65 x i8], [65 x i8], [65 x i8], [65 x i8], [65 x i8], [65 x i8], [65 x i8], i8, i8, i8, i8, i8, i8, i8, i8, i8 }

@.str.197 = private unnamed_addr constant [19 x i8] c"in cli_scanhtml()\0A\00", align 1
@.str.198 = private unnamed_addr constant [59 x i8] c"cli_scanhtml: exiting (file larger than MaxHTMLNormalize)\0A\00", align 1
@.str.199 = private unnamed_addr constant [9 x i8] c"html-tmp\00", align 1
@.str.200 = private unnamed_addr constant [51 x i8] c"cli_scanhtml: Can't create temporary directory %s\0A\00", align 1
@.str.201 = private unnamed_addr constant [32 x i8] c"cli_scanhtml: using tempdir %s\0A\00", align 1
@.str.202 = private unnamed_addr constant [18 x i8] c"%s/nocomment.html\00", align 1
@.str.203 = private unnamed_addr constant [68 x i8] c"cli_scanhtml: skipping notags (normalized size over MaxHTMLNoTags)\0A\00", align 1
@.str.204 = private unnamed_addr constant [15 x i8] c"%s/notags.html\00", align 1
@.str.205 = private unnamed_addr constant [14 x i8] c"%s/javascript\00", align 1
@.str.206 = private unnamed_addr constant [11 x i8] c"%s/rfc2397\00", align 1

; Function Attrs: nounwind uwtable
define internal i32 @cli_scanhtml(ptr noundef %0) #0 {
  %2 = alloca ptr, align 8
  %3 = alloca i32, align 4
  %4 = alloca ptr, align 8
  %5 = alloca [1024 x i8], align 16
  %6 = alloca i32, align 4
  %7 = alloca ptr, align 8
  %8 = alloca i64, align 8
  store ptr %0, ptr %2, align 8
  store i32 0, ptr %3, align 4
  store ptr null, ptr %4, align 8
  store i32 -1, ptr %6, align 4
  %9 = load ptr, ptr %2, align 8
  %10 = getelementptr inbounds %struct.cli_ctx_tag, ptr %9, i32 0, i32 14
  %11 = load ptr, ptr %10, align 8
  store ptr %11, ptr %7, align 8
  %12 = load ptr, ptr %7, align 8
  %13 = getelementptr inbounds %struct.cl_fmap, ptr %12, i32 0, i32 13
  %14 = load i64, ptr %13, align 8
  store i64 %14, ptr %8, align 8
  call void (ptr, ...) @cli_dbgmsg(ptr noundef @.str.197)
  %15 = load i64, ptr %8, align 8
  %16 = load ptr, ptr %2, align 8
  %17 = getelementptr inbounds %struct.cli_ctx_tag, ptr %16, i32 0, i32 6
  %18 = load ptr, ptr %17, align 8
  %19 = getelementptr inbounds %struct.cl_engine, ptr %18, i32 0, i32 65
  %20 = load i64, ptr %19, align 8
  %21 = icmp ugt i64 %15, %20
  br i1 %21, label %22, label %23

22:                                               ; preds = %1
  call void (ptr, ...) @cli_dbgmsg(ptr noundef @.str.198)
  store i32 0, ptr %3, align 4
  br label %130

23:                                               ; preds = %1
  %24 = load ptr, ptr %2, align 8
  %25 = getelementptr inbounds %struct.cli_ctx_tag, ptr %24, i32 0, i32 2
  %26 = load ptr, ptr %25, align 8
  %27 = call ptr @cli_gentemp_with_prefix(ptr noundef %26, ptr noundef @.str.199)
  store ptr %27, ptr %4, align 8
  %28 = icmp eq ptr null, %27
  br i1 %28, label %29, label %30

29:                                               ; preds = %23
  store i32 20, ptr %3, align 4
  br label %130

30:                                               ; preds = %23
  %31 = load ptr, ptr %4, align 8
  %32 = call i32 @mkdir(ptr noundef %31, i32 noundef 448) #11
  %33 = icmp ne i32 %32, 0
  br i1 %33, label %34, label %36

34:                                               ; preds = %30
  %35 = load ptr, ptr %4, align 8
  call void (ptr, ...) @cli_errmsg(ptr noundef @.str.200, ptr noundef %35)
  store i32 18, ptr %3, align 4
  br label %130

36:                                               ; preds = %30
  %37 = load ptr, ptr %4, align 8
  call void (ptr, ...) @cli_dbgmsg(ptr noundef @.str.201, ptr noundef %37)
  %38 = load ptr, ptr %2, align 8
  %39 = load ptr, ptr %7, align 8
  %40 = load ptr, ptr %4, align 8
  %41 = load ptr, ptr %2, align 8
  %42 = getelementptr inbounds %struct.cli_ctx_tag, ptr %41, i32 0, i32 16
  %43 = load ptr, ptr %42, align 8
  %44 = call zeroext i1 @html_normalise_map(ptr noundef %38, ptr noundef %39, ptr noundef %40, ptr noundef null, ptr noundef %43)
  %45 = getelementptr inbounds [1024 x i8], ptr %5, i64 0, i64 0
  %46 = load ptr, ptr %4, align 8
  %47 = call i32 (ptr, i64, ptr, ...) @snprintf(ptr noundef %45, i64 noundef 1024, ptr noundef @.str.202, ptr noundef %46) #11
  %48 = getelementptr inbounds [1024 x i8], ptr %5, i64 0, i64 0
  %49 = call i32 (ptr, i32, ...) @open(ptr noundef %48, i32 noundef 0)
  store i32 %49, ptr %6, align 4
  %50 = load i32, ptr %6, align 4
  %51 = icmp sge i32 %50, 0
  br i1 %51, label %52, label %62

52:                                               ; preds = %36
  %53 = load i32, ptr %6, align 4
  %54 = load ptr, ptr %2, align 8
  %55 = call i32 @cli_scan_desc(i32 noundef %53, ptr noundef %54, i32 noundef 560, i1 noundef zeroext false, ptr noundef null, i32 noundef 1, ptr noundef null, ptr noundef null, i32 noundef 1)
  store i32 %55, ptr %3, align 4
  %56 = load i32, ptr %3, align 4
  %57 = icmp ne i32 0, %56
  br i1 %57, label %58, label %59

58:                                               ; preds = %52
  br label %130

59:                                               ; preds = %52
  %60 = load i32, ptr %6, align 4
  %61 = call i32 @close(i32 noundef %60)
  store i32 -1, ptr %6, align 4
  br label %62

62:                                               ; preds = %59, %36
  %63 = load ptr, ptr %7, align 8
  %64 = getelementptr inbounds %struct.cl_fmap, ptr %63, i32 0, i32 13
  %65 = load i64, ptr %64, align 8
  store i64 %65, ptr %8, align 8
  %66 = load i64, ptr %8, align 8
  %67 = load ptr, ptr %2, align 8
  %68 = getelementptr inbounds %struct.cli_ctx_tag, ptr %67, i32 0, i32 6
  %69 = load ptr, ptr %68, align 8
  %70 = getelementptr inbounds %struct.cl_engine, ptr %69, i32 0, i32 66
  %71 = load i64, ptr %70, align 8
  %72 = icmp ugt i64 %66, %71
  br i1 %72, label %73, label %74

73:                                               ; preds = %62
  call void (ptr, ...) @cli_dbgmsg(ptr noundef @.str.203)
  br label %93

74:                                               ; preds = %62
  %75 = getelementptr inbounds [1024 x i8], ptr %5, i64 0, i64 0
  %76 = load ptr, ptr %4, align 8
  %77 = call i32 (ptr, i64, ptr, ...) @snprintf(ptr noundef %75, i64 noundef 1024, ptr noundef @.str.204, ptr noundef %76) #11
  %78 = getelementptr inbounds [1024 x i8], ptr %5, i64 0, i64 0
  %79 = call i32 (ptr, i32, ...) @open(ptr noundef %78, i32 noundef 0)
  store i32 %79, ptr %6, align 4
  %80 = load i32, ptr %6, align 4
  %81 = icmp sge i32 %80, 0
  br i1 %81, label %82, label %92

82:                                               ; preds = %74
  %83 = load i32, ptr %6, align 4
  %84 = load ptr, ptr %2, align 8
  %85 = call i32 @cli_scan_desc(i32 noundef %83, ptr noundef %84, i32 noundef 560, i1 noundef zeroext false, ptr noundef null, i32 noundef 1, ptr noundef null, ptr noundef null, i32 noundef 1)
  store i32 %85, ptr %3, align 4
  %86 = load i32, ptr %3, align 4
  %87 = icmp ne i32 0, %86
  br i1 %87, label %88, label %89

88:                                               ; preds = %82
  br label %130

89:                                               ; preds = %82
  %90 = load i32, ptr %6, align 4
  %91 = call i32 @close(i32 noundef %90)
  store i32 -1, ptr %6, align 4
  br label %92

92:                                               ; preds = %89, %74
  br label %93

93:                                               ; preds = %92, %73
  %94 = getelementptr inbounds [1024 x i8], ptr %5, i64 0, i64 0
  %95 = load ptr, ptr %4, align 8
  %96 = call i32 (ptr, i64, ptr, ...) @snprintf(ptr noundef %94, i64 noundef 1024, ptr noundef @.str.205, ptr noundef %95) #11
  %97 = getelementptr inbounds [1024 x i8], ptr %5, i64 0, i64 0
  %98 = call i32 (ptr, i32, ...) @open(ptr noundef %97, i32 noundef 0)
  store i32 %98, ptr %6, align 4
  %99 = load i32, ptr %6, align 4
  %100 = icmp sge i32 %99, 0
  br i1 %100, label %101, label %118

101:                                              ; preds = %93
  %102 = load i32, ptr %6, align 4
  %103 = load ptr, ptr %2, align 8
  %104 = call i32 @cli_scan_desc(i32 noundef %102, ptr noundef %103, i32 noundef 560, i1 noundef zeroext false, ptr noundef null, i32 noundef 1, ptr noundef null, ptr noundef null, i32 noundef 1)
  store i32 %104, ptr %3, align 4
  %105 = load i32, ptr %3, align 4
  %106 = icmp ne i32 0, %105
  br i1 %106, label %107, label %108

107:                                              ; preds = %101
  br label %130

108:                                              ; preds = %101
  %109 = load i32, ptr %6, align 4
  %110 = load ptr, ptr %2, align 8
  %111 = call i32 @cli_scan_desc(i32 noundef %109, ptr noundef %110, i32 noundef 500, i1 noundef zeroext false, ptr noundef null, i32 noundef 1, ptr noundef null, ptr noundef null, i32 noundef 1)
  store i32 %111, ptr %3, align 4
  %112 = load i32, ptr %3, align 4
  %113 = icmp ne i32 0, %112
  br i1 %113, label %114, label %115

114:                                              ; preds = %108
  br label %130

115:                                              ; preds = %108
  %116 = load i32, ptr %6, align 4
  %117 = call i32 @close(i32 noundef %116)
  store i32 -1, ptr %6, align 4
  br label %118

118:                                              ; preds = %115, %93
  %119 = getelementptr inbounds [1024 x i8], ptr %5, i64 0, i64 0
  %120 = load ptr, ptr %4, align 8
  %121 = call i32 (ptr, i64, ptr, ...) @snprintf(ptr noundef %119, i64 noundef 1024, ptr noundef @.str.206, ptr noundef %120) #11
  %122 = getelementptr inbounds [1024 x i8], ptr %5, i64 0, i64 0
  %123 = load ptr, ptr %2, align 8
  %124 = call i32 @cli_magic_scan_dir(ptr noundef %122, ptr noundef %123, i32 noundef 1)
  store i32 %124, ptr %3, align 4
  %125 = load i32, ptr %3, align 4
  %126 = icmp eq i32 8, %125
  br i1 %126, label %127, label %128

127:                                              ; preds = %118
  store i32 0, ptr %3, align 4
  br label %129

128:                                              ; preds = %118
  br label %130

129:                                              ; preds = %127
  br label %130

130:                                              ; preds = %129, %128, %114, %107, %88, %58, %34, %29, %22
  %131 = load i32, ptr %6, align 4
  %132 = icmp sge i32 %131, 0
  br i1 %132, label %133, label %136

133:                                              ; preds = %130
  %134 = load i32, ptr %6, align 4
  %135 = call i32 @close(i32 noundef %134)
  br label %136

136:                                              ; preds = %133, %130
  %137 = load ptr, ptr %4, align 8
  %138 = icmp ne ptr null, %137
  br i1 %138, label %139, label %151

139:                                              ; preds = %136
  %140 = load ptr, ptr %2, align 8
  %141 = getelementptr inbounds %struct.cli_ctx_tag, ptr %140, i32 0, i32 6
  %142 = load ptr, ptr %141, align 8
  %143 = getelementptr inbounds %struct.cl_engine, ptr %142, i32 0, i32 8
  %144 = load i32, ptr %143, align 8
  %145 = icmp ne i32 %144, 0
  br i1 %145, label %149, label %146

146:                                              ; preds = %139
  %147 = load ptr, ptr %4, align 8
  %148 = call i32 @cli_rmdirs(ptr noundef %147)
  br label %149

149:                                              ; preds = %146, %139
  %150 = load ptr, ptr %4, align 8
  call void @free(ptr noundef %150) #11
  br label %151

151:                                              ; preds = %149, %136
  %152 = load i32, ptr %3, align 4
  ret i32 %152
}