; Function Attrs: nounwind uwtable
define internal fastcc i32 @cli_scanhtml(ptr noundef %0) unnamed_addr #0 {
  %2 = alloca [1024 x i8], align 16
  %3 = getelementptr inbounds nuw i8, ptr %0, i64 96
  %4 = load ptr, ptr %3, align 8
  %5 = getelementptr inbounds nuw i8, ptr %4, i64 88
  %6 = load i64, ptr %5, align 8
  tail call void (ptr, ...) @cli_dbgmsg(ptr noundef nonnull @.str.197) #16
  %7 = getelementptr inbounds nuw i8, ptr %0, i64 48
  %8 = load ptr, ptr %7, align 8
  %9 = getelementptr inbounds nuw i8, ptr %8, i64 1048
  %10 = load i64, ptr %9, align 8
  %11 = icmp ugt i64 %6, %10
  br i1 %11, label %12, label %13

12:                                               ; preds = %1
  tail call void (ptr, ...) @cli_dbgmsg(ptr noundef nonnull @.str.198) #16
  br label %70

13:                                               ; preds = %1
  %14 = getelementptr inbounds nuw i8, ptr %0, i64 16
  %15 = load ptr, ptr %14, align 8
  %16 = tail call ptr @cli_gentemp_with_prefix(ptr noundef %15, ptr noundef nonnull @.str.199) #16
  %17 = icmp eq ptr %16, null
  br i1 %17, label %70, label %18

18:                                               ; preds = %13
  %19 = tail call i32 @mkdir(ptr noundef nonnull %16, i32 noundef 448) #16
  %.not = icmp eq i32 %19, 0
  br i1 %.not, label %21, label %20

20:                                               ; preds = %18
  tail call void (ptr, ...) @cli_errmsg(ptr noundef nonnull @.str.200, ptr noundef nonnull %16) #16
  br label %63

21:                                               ; preds = %18
  tail call void (ptr, ...) @cli_dbgmsg(ptr noundef nonnull @.str.201, ptr noundef nonnull %16) #16
  %22 = getelementptr inbounds nuw i8, ptr %0, i64 120
  %23 = load ptr, ptr %22, align 8
  %24 = tail call zeroext i1 @html_normalise_map(ptr noundef nonnull %0, ptr noundef nonnull %4, ptr noundef nonnull %16, ptr noundef null, ptr noundef %23) #16
  %25 = call i32 (ptr, i64, ptr, ...) @snprintf(ptr noundef nonnull dereferenceable(1) %2, i64 noundef 1024, ptr noundef nonnull @.str.202, ptr noundef nonnull %16) #16
  %26 = call i32 (ptr, i32, ...) @open(ptr noundef nonnull %2, i32 noundef 0) #16
  %27 = icmp sgt i32 %26, -1
  br i1 %27, label %28, label %32

28:                                               ; preds = %21
  %29 = tail call i32 @cli_scan_desc(i32 noundef %26, ptr noundef nonnull %0, i32 noundef 560, i1 noundef zeroext false, ptr noundef null, i32 noundef 1, ptr noundef null, ptr noundef null, i32 noundef 1) #16
  %.not57 = icmp eq i32 %29, 0
  br i1 %.not57, label %30, label %61

30:                                               ; preds = %28
  %31 = tail call i32 @close(i32 noundef %26) #16
  br label %32

32:                                               ; preds = %30, %21
  %33 = load i64, ptr %5, align 8
  %34 = load ptr, ptr %7, align 8
  %35 = getelementptr inbounds nuw i8, ptr %34, i64 1056
  %36 = load i64, ptr %35, align 8
  %37 = icmp ugt i64 %33, %36
  br i1 %37, label %38, label %39

38:                                               ; preds = %32
  tail call void (ptr, ...) @cli_dbgmsg(ptr noundef nonnull @.str.203) #16
  br label %47

39:                                               ; preds = %32
  %40 = call i32 (ptr, i64, ptr, ...) @snprintf(ptr noundef nonnull dereferenceable(1) %2, i64 noundef 1024, ptr noundef nonnull @.str.204, ptr noundef nonnull %16) #16
  %41 = call i32 (ptr, i32, ...) @open(ptr noundef nonnull %2, i32 noundef 0) #16
  %42 = icmp sgt i32 %41, -1
  br i1 %42, label %43, label %47

43:                                               ; preds = %39
  %44 = tail call i32 @cli_scan_desc(i32 noundef %41, ptr noundef nonnull %0, i32 noundef 560, i1 noundef zeroext false, ptr noundef null, i32 noundef 1, ptr noundef null, ptr noundef null, i32 noundef 1) #16
  %.not58 = icmp eq i32 %44, 0
  br i1 %.not58, label %45, label %61

45:                                               ; preds = %43
  %46 = tail call i32 @close(i32 noundef %41) #16
  br label %47

47:                                               ; preds = %39, %45, %38
  %48 = call i32 (ptr, i64, ptr, ...) @snprintf(ptr noundef nonnull dereferenceable(1) %2, i64 noundef 1024, ptr noundef nonnull @.str.205, ptr noundef nonnull %16) #16
  %49 = call i32 (ptr, i32, ...) @open(ptr noundef nonnull %2, i32 noundef 0) #16
  %50 = icmp sgt i32 %49, -1
  br i1 %50, label %51, label %57

51:                                               ; preds = %47
  %52 = tail call i32 @cli_scan_desc(i32 noundef %49, ptr noundef nonnull %0, i32 noundef 560, i1 noundef zeroext false, ptr noundef null, i32 noundef 1, ptr noundef null, ptr noundef null, i32 noundef 1) #16
  %.not59 = icmp eq i32 %52, 0
  br i1 %.not59, label %53, label %61

53:                                               ; preds = %51
  %54 = tail call i32 @cli_scan_desc(i32 noundef %49, ptr noundef nonnull %0, i32 noundef 500, i1 noundef zeroext false, ptr noundef null, i32 noundef 1, ptr noundef null, ptr noundef null, i32 noundef 1) #16
  %.not60 = icmp eq i32 %54, 0
  br i1 %.not60, label %55, label %61

55:                                               ; preds = %53
  %56 = tail call i32 @close(i32 noundef %49) #16
  br label %57

57:                                               ; preds = %55, %47
  %58 = call i32 (ptr, i64, ptr, ...) @snprintf(ptr noundef nonnull dereferenceable(1) %2, i64 noundef 1024, ptr noundef nonnull @.str.206, ptr noundef nonnull %16) #16
  %59 = call i32 @cli_magic_scan_dir(ptr noundef nonnull %2, ptr noundef nonnull %0, i32 noundef 1)
  %60 = icmp eq i32 %59, 8
  %spec.store.select = select i1 %60, i32 0, i32 %59
  br label %63

61:                                               ; preds = %28, %51, %53, %43
  %.045.ph = phi i32 [ %41, %43 ], [ %49, %53 ], [ %49, %51 ], [ %26, %28 ]
  %.0.ph = phi i32 [ %44, %43 ], [ %54, %53 ], [ %52, %51 ], [ %29, %28 ]
  %62 = tail call i32 @close(i32 noundef %.045.ph) #16
  br label %63

63:                                               ; preds = %61, %20, %57
  %.069.ph = phi i32 [ %spec.store.select, %57 ], [ 18, %20 ], [ %.0.ph, %61 ]
  %64 = load ptr, ptr %7, align 8
  %65 = getelementptr inbounds nuw i8, ptr %64, i64 40
  %66 = load i32, ptr %65, align 8
  %.not62 = icmp eq i32 %66, 0
  br i1 %.not62, label %67, label %69

67:                                               ; preds = %63
  %68 = call i32 @cli_rmdirs(ptr noundef nonnull %16) #16
  br label %69

69:                                               ; preds = %67, %63
  call void @free(ptr noundef nonnull %16) #16
  br label %70

70:                                               ; preds = %13, %12, %69
  %.06977 = phi i32 [ %.069.ph, %69 ], [ 0, %12 ], [ 20, %13 ]
  ret i32 %.06977
}